00001000:	and     	dword ptr [rcx + riz*2], edi
00001003:	jb      	0x1068
00001005:	push    	0x202f0a3e
0000100a:	and     	byte ptr [rax], ah
0000100c:	and     	byte ptr [rax], ah
0000100e:	and     	byte ptr [rax], ah
00001010:	and     	byte ptr [rax], ah
00001012:	and     	byte ptr [rax], ah
00001014:	and     	byte ptr [rax], ah
00001016:	and     	byte ptr [rax], ah
00001018:	xor     	byte ptr [rax], ah
0000101a:	and     	byte ptr [rax], ah
0000101c:	and     	byte ptr [rax], ah
0000101e:	and     	byte ptr [rax], ah
00001020:	and     	byte ptr [rax], ah
00001022:	and     	byte ptr [rax], ah
00001024:	xor     	byte ptr [rax], ah
00001026:	and     	byte ptr [rax], ah
00001028:	and     	byte ptr [rax], ah
0000102a:	xor     	byte ptr [rax], ah
0000102c:	and     	byte ptr [rax], ah
0000102e:	and     	byte ptr [rax], ah
00001030:	xor     	byte ptr [rax], ah
00001032:	and     	byte ptr [rax], ah
00001034:	and     	byte ptr [rax], ah
00001036:	and     	byte ptr [rax], ah
00001038:	xor     	eax, 0x20303930
0000103d:	and     	byte ptr [rax], ah
0000103f:	and     	byte ptr [rax], ah
00001041:	and     	byte ptr [rax + 0xa], ah
00001044:	add     	byte ptr [rax], al
00001046:	add     	byte ptr [rip + 0x4e100300], bh
0000104c:	add     	byte ptr [rbx], al
0000104e:	adc     	byte ptr [rsi], cl
00001051:	add     	edx, dword ptr [rax]
00001053:	add     	byte ptr [rbx], r8b
00001056:	adc     	byte ptr [rsi], cl
00001059:	add     	edx, dword ptr [rax]
0000105b:	add     	byte ptr [rbx], r8b
0000105e:	adc     	byte ptr [rsi], cl
00001061:	add     	edx, dword ptr [rax]
00001063:	add     	byte ptr [rbx], r8b
00001066:	adc     	byte ptr [rsi], cl
00001069:	add     	edx, dword ptr [rax]
0000106b:	add     	byte ptr [rbx], r8b
0000106e:	adc     	byte ptr [rsi], cl
00001071:	add     	edx, dword ptr [rax]
00001073:	add     	byte ptr [rbx], r8b
00001076:	adc     	byte ptr [rsi], cl
00001079:	add     	edx, dword ptr [rax]
0000107b:	add     	byte ptr [rbx], r8b
0000107e:	adc     	byte ptr [rsi], cl
00001081:	add     	edx, dword ptr [rax]
00001083:	add     	byte ptr [rbx], r8b
00001086:	adc     	byte ptr [rsi], cl
00001089:	add     	edx, dword ptr [rax]
0000108b:	add     	byte ptr [rbx], r8b
0000108e:	adc     	byte ptr [rsi], cl
00001091:	add     	edx, dword ptr [rax]
00001093:	add     	byte ptr [rbx], r8b
00001096:	adc     	byte ptr [rsi], cl
00001099:	add     	edx, dword ptr [rax]
0000109b:	add     	byte ptr [rbx], r8b
0000109e:	adc     	byte ptr [rsi], cl
000010a1:	add     	edx, dword ptr [rax]
000010a3:	add     	byte ptr [rbx], r8b
000010a6:	adc     	byte ptr [rsi], cl
000010a9:	add     	edx, dword ptr [rax]
000010ab:	add     	byte ptr [rbx], r8b
000010ae:	adc     	byte ptr [rsi], cl
000010b1:	add     	edx, dword ptr [rax]
000010b3:	add     	byte ptr [rbx], r8b
000010b6:	adc     	byte ptr [rsi], cl
000010b9:	add     	edx, dword ptr [rax]
000010bb:	add     	byte ptr [rbx], r8b
000010be:	adc     	byte ptr [rsi], cl
000010c1:	add     	edx, dword ptr [rax]
000010c3:	add     	byte ptr [rbx], r8b
000010c6:	adc     	byte ptr [rsi], cl
000010c9:	add     	edx, dword ptr [rax]
000010cb:	add     	byte ptr [rbx], r8b
000010ce:	adc     	byte ptr [rsi], cl
000010d1:	add     	edx, dword ptr [rax]
000010d3:	add     	byte ptr [rbx], r8b
000010d6:	adc     	byte ptr [rsi], cl
000010d9:	add     	edx, dword ptr [rax]
000010db:	add     	byte ptr [rbx], r8b
000010de:	adc     	byte ptr [rsi], cl
000010e1:	add     	edx, dword ptr [rax]
000010e3:	add     	byte ptr [rbx], r8b
000010e6:	adc     	byte ptr [rsi], cl
000010e9:	add     	edx, dword ptr [rax]
000010eb:	add     	byte ptr [rbx], r8b
000010ee:	adc     	byte ptr [rsi], cl
000010f1:	add     	edx, dword ptr [rax]
000010f3:	add     	byte ptr [rbx], r8b
000010f6:	adc     	byte ptr [rsi], cl
000010f9:	add     	edx, dword ptr [rax]
000010fb:	add     	byte ptr [rbx], r8b
000010fe:	adc     	byte ptr [rsi], cl
00001101:	add     	edx, dword ptr [rax]
00001103:	add     	byte ptr [rbx], r8b
00001106:	adc     	byte ptr [rsi], cl
00001109:	add     	edx, dword ptr [rax]
0000110b:	add     	byte ptr [rbx], r8b
0000110e:	adc     	byte ptr [rsi], cl
00001111:	add     	edx, dword ptr [rax]
00001113:	add     	byte ptr [rbx], r8b
00001116:	adc     	byte ptr [rsi], cl
00001119:	add     	edx, dword ptr [rax]
0000111b:	add     	byte ptr [rbx], r8b
0000111e:	adc     	byte ptr [rsi], cl
00001121:	add     	edx, dword ptr [rax]
00001123:	add     	byte ptr [rbx], r8b
00001126:	adc     	byte ptr [rsi], cl
00001129:	add     	edx, dword ptr [rax]
0000112b:	add     	byte ptr [rbx], r8b
0000112e:	adc     	byte ptr [rsi], cl
00001131:	add     	edx, dword ptr [rax]
00001133:	add     	byte ptr [rbx], r8b
00001136:	adc     	byte ptr [rsi], cl
00001139:	add     	edx, dword ptr [rax]
0000113b:	pop     	rdi
0000113d:	pop     	rdx
0000113e:	xor     	qword ptr [rax], r14
00001141:	xor     	bl, byte ptr [rdi + 0x24]
00001144:	push    	rsp
00001146:	and     	al, 0x63
00001148:	outsd   	dx, dword ptr [rsi]
00001149:	jb      	0x11b0
0000114b:	imul    	esi, dword ptr cs:[rbp + riz*2 + 0x72], 0x64612e2e
